target datalayout = "e-m:e-p270:32:32-p271:32:32-p272:64:64-i64:64-i128:128-f80:128-n8:16:32:64-S128"
target triple = "x86_64-unknown-linux-gnu"

; Function Attrs: fn_ret_thunk_extern nounwind null_pointer_is_valid
define internal fastcc noundef i32 @objects_lookup(ptr noundef %0, ptr nocapture noundef readonly %1, i32 noundef %2, ptr nocapture noundef writeonly %3) unnamed_addr #0 align 16 {
  %5 = getelementptr inbounds i8, ptr %0, i64 104
  tail call void @_raw_spin_lock(ptr noundef %5) #11
  %6 = getelementptr inbounds i8, ptr %0, i64 80
  %7 = icmp sgt i32 %2, 0
  br i1 %7, label %8, label %30

8:                                                ; preds = %4
  %9 = zext nneg i32 %2 to i64
  br label %10

10:                                               ; preds = %26, %8
  %11 = phi i64 [ 0, %8 ], [ %28, %26 ]
  %12 = getelementptr i32, ptr %1, i64 %11
  %13 = load i32, ptr %12, align 4
  %14 = zext i32 %13 to i64
  %15 = tail call ptr @idr_find(ptr noundef %6, i64 noundef %14) #11
  %16 = icmp eq ptr %15, null
  br i1 %16, label %30, label %17

17:                                               ; preds = %10
  %18 = tail call i32 asm sideeffect ".pushsection .smp_locks,\22a\22\0A.balign 4\0A.long 671f - .\0A.popsection\0A671:\0A\09lock; xaddl $0, $1\0A", "=r,=*m,0,*m,~{memory},~{cc},~{dirflag},~{fpsr},~{flags}"(ptr nonnull elementtype(i32) %15, i32 1, ptr nonnull elementtype(i32) %15) #11, !srcloc !22
  %19 = icmp eq i32 %18, 0
  br i1 %19, label %24, label %20, !prof !15

20:                                               ; preds = %17
  %21 = add i32 %18, 1
  %22 = or i32 %21, %18
  %23 = icmp sgt i32 %22, -1
  br i1 %23, label %26, label %24, !prof !6

24:                                               ; preds = %20, %17
  %25 = phi i32 [ 2, %17 ], [ 1, %20 ]
  tail call void @refcount_warn_saturate(ptr noundef nonnull %15, i32 noundef %25) #11
  br label %26

26:                                               ; preds = %24, %20
  %27 = getelementptr ptr, ptr %3, i64 %11
  store ptr %15, ptr %27, align 8
  %28 = add nuw nsw i64 %11, 1
  %29 = icmp eq i64 %28, %9
  br i1 %29, label %30, label %10, !llvm.loop !54

30:                                               ; preds = %26, %10, %4
  %31 = phi i32 [ 0, %4 ], [ 0, %26 ], [ -2, %10 ]
  tail call void @_raw_spin_unlock(ptr noundef %5) #11
  ret i32 %31
}

; Function Attrs: fn_ret_thunk_extern nounwind null_pointer_is_valid
define dso_local ptr @drm_gem_object_lookup(ptr noundef %0, i32 noundef %1) #0 align 16 {
  %3 = alloca i32, align 4
  %4 = alloca ptr, align 8
  store i32 %1, ptr %3, align 4
  call void @llvm.lifetime.start.p0(i64 8, ptr nonnull %4) #11
  store ptr null, ptr %4, align 8
  %5 = call fastcc i32 @objects_lookup(ptr noundef %0, ptr noundef nonnull %3, i32 noundef 1, ptr noundef nonnull %4), !range !12
  %6 = load ptr, ptr %4, align 8
  call void @llvm.lifetime.end.p0(i64 8, ptr nonnull %4) #11
  ret ptr %6
}