; Function Attrs: fn_ret_thunk_extern nounwind null_pointer_is_valid
define dso_local ptr @drm_gem_object_lookup(ptr noundef %0, i32 noundef %1) #0 align 16 {
  %3 = getelementptr inbounds i8, ptr %0, i64 104
  tail call void @_raw_spin_lock(ptr noundef %3) #11
  %4 = getelementptr inbounds i8, ptr %0, i64 80
  %5 = zext i32 %1 to i64
  %6 = tail call ptr @idr_find(ptr noundef %4, i64 noundef %5) #11
  %7 = icmp eq ptr %6, null
  br i1 %7, label %objects_lookup.exit, label %.lr.ph.preheader

.lr.ph.preheader:                                 ; preds = %2
  %8 = tail call i32 asm sideeffect ".pushsection .smp_locks,\22a\22\0A.balign 4\0A.long 671f - .\0A.popsection\0A671:\0A\09lock; xaddl $0, $1\0A", "=r,=*m,0,*m,~{memory},~{cc},~{dirflag},~{fpsr},~{flags}"(ptr nonnull elementtype(i32) %6, i32 1, ptr nonnull elementtype(i32) %6) #11, !srcloc !12
  %9 = icmp eq i32 %8, 0
  br i1 %9, label %14, label %10, !prof !13

10:                                               ; preds = %.lr.ph.preheader
  %11 = add i32 %8, 1
  %12 = or i32 %11, %8
  %13 = icmp sgt i32 %12, -1
  br i1 %13, label %objects_lookup.exit, label %14, !prof !6

14:                                               ; preds = %10, %.lr.ph.preheader
  %15 = phi i32 [ 2, %.lr.ph.preheader ], [ 1, %10 ]
  tail call void @refcount_warn_saturate(ptr noundef nonnull %6, i32 noundef %15) #11
  br label %objects_lookup.exit

objects_lookup.exit:                              ; preds = %14, %10, %2
  tail call void @_raw_spin_unlock(ptr noundef %3) #11
  ret ptr %6
}